target datalayout = "e-m:e-p270:32:32-p271:32:32-p272:64:64-i64:64-i128:128-f80:128-n8:16:32:64-S128"
target triple = "x86_64-pc-linux-gnu"

%"class.net::QuicTime" = type { i64 }
%"class.std::vector.18" = type { %"struct.std::_Vector_base.19" }
%"struct.std::_Vector_base.19" = type { %"struct.std::_Vector_base<net::QuicFrame, std::allocator<net::QuicFrame>>::_Vector_impl" }
%"struct.std::_Vector_base<net::QuicFrame, std::allocator<net::QuicFrame>>::_Vector_impl" = type { %"struct.std::_Vector_base<net::QuicFrame, std::allocator<net::QuicFrame>>::_Vector_impl_data" }
%"struct.std::_Vector_base<net::QuicFrame, std::allocator<net::QuicFrame>>::_Vector_impl_data" = type { ptr, ptr, ptr }
%"struct.net::SerializedPacket" = type { ptr, i16, %"class.std::vector.18", i8, i16, i8, i64, i8, i8, i8, i8, i8, i8, i8, i64, %"class.std::__cxx11::list" }
%"class.std::__cxx11::list" = type { %"class.std::__cxx11::_List_base" }
%"class.std::__cxx11::_List_base" = type { %"struct.std::__cxx11::_List_base<net::AckListenerWrapper, std::allocator<net::AckListenerWrapper>>::_List_impl" }
%"struct.std::__cxx11::_List_base<net::AckListenerWrapper, std::allocator<net::AckListenerWrapper>>::_List_impl" = type { %"struct.std::__detail::_List_node_header" }
%"struct.std::__detail::_List_node_header" = type { %"struct.std::__detail::_List_node_base", i64 }
%"struct.std::__detail::_List_node_base" = type { ptr, ptr }

; Function Attrs: mustprogress uwtable
define noundef zeroext i1 @_ZN3net30QuicMultipathSentPacketManager12OnPacketSentEPNS_16SerializedPacketEhmNS_8QuicTimeENS_16TransmissionTypeENS_22HasRetransmittableDataE(ptr noundef nonnull align 8 dereferenceable(40) %0, ptr noundef %1, i8 noundef zeroext %2, i64 noundef %3, i64 %4, i8 noundef signext %5, i8 noundef signext %6) unnamed_addr #0 align 2 {
  %8 = alloca i1, align 1
  %9 = alloca %"class.net::QuicTime", align 8
  %10 = alloca ptr, align 8
  %11 = alloca ptr, align 8
  %12 = alloca i8, align 1
  %13 = alloca i64, align 8
  %14 = alloca i8, align 1
  %15 = alloca i8, align 1
  %16 = alloca ptr, align 8
  %17 = alloca i32, align 4
  %18 = alloca %"class.net::QuicTime", align 8
  %19 = getelementptr inbounds nuw %"class.net::QuicTime", ptr %9, i32 0, i32 0
  store i64 %4, ptr %19, align 8
  store ptr %0, ptr %10, align 8, !tbaa !3
  store ptr %1, ptr %11, align 8, !tbaa !97
  store i8 %2, ptr %12, align 1, !tbaa !42
  store i64 %3, ptr %13, align 8, !tbaa !44
  store i8 %5, ptr %14, align 1, !tbaa !69
  store i8 %6, ptr %15, align 1, !tbaa !99
  %20 = load ptr, ptr %10, align 8
  call void @llvm.lifetime.start.p0(i64 8, ptr %16) #15
  %21 = load ptr, ptr %11, align 8, !tbaa !97
  %22 = getelementptr inbounds nuw %"struct.net::SerializedPacket", ptr %21, i32 0, i32 5
  %23 = load i8, ptr %22, align 4, !tbaa !101
  %24 = call noundef ptr @_ZNK3net30QuicMultipathSentPacketManager38MaybeGetSentPacketManagerForActivePathEh(ptr noundef nonnull align 8 dereferenceable(40) %20, i8 noundef zeroext %23)
  store ptr %24, ptr %16, align 8, !tbaa !8
  %25 = load ptr, ptr %16, align 8, !tbaa !8
  %26 = icmp eq ptr %25, null
  br i1 %26, label %27, label %31

27:                                               ; preds = %7
  %28 = load ptr, ptr %11, align 8, !tbaa !97
  %29 = getelementptr inbounds nuw %"struct.net::SerializedPacket", ptr %28, i32 0, i32 5
  %30 = load i8, ptr %29, align 4, !tbaa !101
  call void @_ZN3net30QuicMultipathSentPacketManager24OnUnrecoverablePathErrorEh(ptr noundef nonnull align 8 dereferenceable(40) %20, i8 noundef zeroext %30)
  store i1 false, ptr %8, align 1
  store i32 1, ptr %17, align 4
  br label %44

31:                                               ; preds = %7
  %32 = load ptr, ptr %16, align 8, !tbaa !8
  %33 = load ptr, ptr %11, align 8, !tbaa !97
  %34 = load i8, ptr %12, align 1, !tbaa !42
  %35 = load i64, ptr %13, align 8, !tbaa !44
  call void @llvm.memcpy.p0.p0.i64(ptr align 8 %18, ptr align 8 %9, i64 8, i1 false), !tbaa.struct !46
  %36 = load i8, ptr %14, align 1, !tbaa !69
  %37 = load i8, ptr %15, align 1, !tbaa !99
  %38 = getelementptr inbounds nuw %"class.net::QuicTime", ptr %18, i32 0, i32 0
  %39 = load i64, ptr %38, align 8
  %40 = load ptr, ptr %32, align 8, !tbaa !12
  %41 = getelementptr inbounds ptr, ptr %40, i64 15
  %42 = load ptr, ptr %41, align 8
  %43 = call noundef zeroext i1 %42(ptr noundef nonnull align 8 dereferenceable(8) %32, ptr noundef %33, i8 noundef zeroext %34, i64 noundef %35, i64 %39, i8 noundef signext %36, i8 noundef signext %37)
  store i1 %43, ptr %8, align 1
  store i32 1, ptr %17, align 4
  br label %44

44:                                               ; preds = %31, %27
  call void @llvm.lifetime.end.p0(i64 8, ptr %16) #15
  %45 = load i1, ptr %8, align 1
  ret i1 %45
}