; Function Attrs: mustprogress uwtable
define noundef zeroext i1 @_ZN3net30QuicMultipathSentPacketManager12OnPacketSentEPNS_16SerializedPacketEhmNS_8QuicTimeENS_16TransmissionTypeENS_22HasRetransmittableDataE(ptr noundef nonnull readonly align 8 captures(none) dereferenceable(40) %0, ptr noundef %1, i8 noundef zeroext %2, i64 noundef %3, i64 %4, i8 noundef signext %5, i8 noundef signext %6) unnamed_addr #0 align 2 {
  %8 = getelementptr inbounds nuw i8, ptr %1, i64 44
  %9 = load i8, ptr %8, align 4, !tbaa !93
  %10 = tail call noundef ptr @_ZNK3net30QuicMultipathSentPacketManager38MaybeGetSentPacketManagerForActivePathEh(ptr noundef nonnull align 8 dereferenceable(40) %0, i8 noundef zeroext %9)
  %11 = icmp eq ptr %10, null
  br i1 %11, label %12, label %14

12:                                               ; preds = %7
  %13 = load i8, ptr %8, align 4, !tbaa !93
  tail call void @_ZN3net30QuicMultipathSentPacketManager24OnUnrecoverablePathErrorEh(ptr noundef nonnull align 8 dereferenceable(40) %0, i8 noundef zeroext %13)
  br label %19

14:                                               ; preds = %7
  %15 = load ptr, ptr %10, align 8, !tbaa !3
  %16 = getelementptr inbounds nuw i8, ptr %15, i64 120
  %17 = load ptr, ptr %16, align 8
  %18 = tail call noundef zeroext i1 %17(ptr noundef nonnull align 8 dereferenceable(8) %10, ptr noundef nonnull %1, i8 noundef zeroext %2, i64 noundef %3, i64 %4, i8 noundef signext %5, i8 noundef signext %6)
  br label %19

19:                                               ; preds = %14, %12
  %.0 = phi i1 [ false, %12 ], [ %18, %14 ]
  ret i1 %.0
}